(lp0
(VB00PGQYEUK
p1
L2193L
tp2
a(VB018JDMD4K
p3
L1515L
tp4
a(VB004IBVW86
p5
L1736L
tp6
a(VB01N2O89ET
p7
L200L
tp8
a(VB002QI2TPI
p9
L2710L
tp10
a(VB015TTNJUE
p11
L1665L
tp12
a(VB06W5J5MP3
p13
L510L
tp14
a(VB016UMZFQU
p15
L754L
tp16
a(VB077V5CTXN
p17
L12L
tp18
a(VB00UKP1M2K
p19
L925L
tp20
a(VB001ESN2TS
p21
L273L
tp22
a(VB01CNZMMVO
p23
L1431L
tp24
a(VB015CIV4OA
p25
L199L
tp26
a(VB00AMYORHQ
p27
L102L
tp28
a(VB00FSXFZ22
p29
L271L
tp30
a(VB076NL8HCH
p31
L5L
tp32
a(VB006OZEYR0
p33
L487L
tp34
a(VB01N7VVMKF
p35
L60L
tp36
a(VB076S4HM9C
p37
L16L
tp38
a(VB00ZDADBBC
p39
L96L
tp40
a(VB01CNQZJEU
p41
L28L
tp42
a(VB0143EQSNQ
p43
L55L
tp44
a(VB01NH0F6K0
p45
L70L
tp46
a(VB073WVHLFB
p47
L80L
tp48
a(VB071WQMP29
p49
L20L
tp50
a(VB00Q26WGUI
p51
L294L
tp52
a(VB001ZD3DHI
p53
L171L
tp54
a(VB000U5TUQU
p55
L89L
tp56
a(VB01M0YW9NW
p57
L218L
tp58
a(VB00112BSR0
p59
L320L
tp60
a(VB003B3OJ7S
p61
L471L
tp62
a(VB01CMEKYRA
p63
L48L
tp64
a(VB00JZ3SNR0
p65
L249L
tp66
a(VB00AUFS12O
p67
L175L
tp68
a(VB01LW1983J
p69
L137L
tp70
a(VB00GI22AUM
p71
L328L
tp72
a(VB005EII2R6
p73
L743L
tp74
a(VB01KHSV0UI
p75
L104L
tp76
a(VB073WZHV8G
p77
L62L
tp78
a(VB0029ERWH4
p79
L1986L
tp80
a(VB00DR7HYLG
p81
L1041L
tp82
a(VB00005UFET
p83
L100L
tp84
a(VB01GJ05O0K
p85
L315L
tp86
a(VB00L2NABOO
p87
L200L
tp88
a(VB00VTU0IHA
p89
L70L
tp90
a(VB075QB269B
p91
L105L
tp92
a(VB005EII5UU
p93
L97L
tp94
a(VB001IZ0ZFQ
p95
L59L
tp96
a(VB076K7NRKX
p97
L6L
tp98
a(VB00AQ9KB0O
p99
L499L
tp100
a(VB0169YY45C
p101
L189L
tp102
a(VB074VFYCK2
p103
L34L
tp104
a(VB074TH9S6C
p105
L30L
tp106
a(VB001BBQCRC
p107
L399L
tp108
a(VB01BICX1FE
p109
L172L
tp110
a(VB00TQEZB2S
p111
L172L
tp112
a(VB076DL1RRD
p113
L98L
tp114
a(VB073ZBGLJF
p115
L44L
tp116
a(VB072M75DT5
p117
L23L
tp118
a(VB004VQTUVE
p119
L221L
tp120
a(VB01D1DR29E
p121
L75L
tp122
a(VB006L7SF4O
p123
L634L
tp124
a(VB009QZJDJO
p125
L73L
tp126
a(VB00DD6FKBW
p127
L1L
tp128
a(VB01DX1ODPK
p129
L213L
tp130
a(VB0778RCH2Q
p131
L3L
tp132
a(VB0781VY711
p133
L179L
tp134
a(VB00HWFBYUG
p135
L237L
tp136
a(VB00JJIUDVA
p137
L54L
tp138
a(VB01IT9JHN4
p139
L178L
tp140
a(VB01IW02HYG
p141
L15L
tp142
a(VB01M4NIH3V
p143
L673L
tp144
a(VB0013CSGBE
p145
L536L
tp146
a(VB00AB4ZTEW
p147
L478L
tp148
a(VB06XDMGD9P
p149
L104L
tp150
a(VB01N1M25Z8
p151
L11L
tp152
a(VB01MTJH0FG
p153
L112L
tp154
a(VB004GDH4JC
p155
L120L
tp156
a(VB00TQEZAHO
p157
L209L
tp158
a(VB01ID86T1E
p159
L25L
tp160
a(VB00ZZ8XOD2
p161
L265L
tp162
a(VB01LX3WP3C
p163
L180L
tp164
a(VB00IZAWHTY
p165
L172L
tp166
a(VB005UKRRKG
p167
L516L
tp168
a(VB00IITFUVO
p169
L66L
tp170
a(VB00ADRH2EM
p171
L90L
tp172
a(VB071K5D67Q
p173
L161L
tp174
a(VB001L1H8DY
p175
L143L
tp176
a(VB0745P9113
p177
L18L
tp178
a(VB077V239QB
p179
L6L
tp180
a(VB07BSRM5H8
p181
L0L
tp182
a(VB06X9Y6TJN
p183
L49L
tp184
a(VB074TDWRVT
p185
L63L
tp186
a(VB00BR1WRT8
p187
L20L
tp188
a(VB06ZYY2QXW
p189
L14L
tp190
a(VB00B4ALGWG
p191
L58L
tp192
a(VB008GOR6O0
p193
L6177L
tp194
a(VB0748FHW88
p195
L31L
tp196
a(VB00S6PJXU4
p197
L132L
tp198
a(VB006UET6YG
p199
L719L
tp200
a.